target datalayout = "e-m:e-p270:32:32-p271:32:32-p272:64:64-i64:64-i128:128-f80:128-n8:16:32:64-S128"
target triple = "x86_64-pc-linux-gnu"

; Function Attrs: nounwind uwtable
define void @swapAndFlip(ptr noundef %0, i32 noundef %1, i32 noundef %2, i32 noundef %3, ptr noundef %4, ptr noundef %5) #0 {
  %7 = alloca ptr, align 8
  %8 = alloca i32, align 4
  %9 = alloca i32, align 4
  %10 = alloca i32, align 4
  %11 = alloca ptr, align 8
  %12 = alloca ptr, align 8
  %13 = alloca i32, align 4
  store ptr %0, ptr %7, align 8, !tbaa !3
  store i32 %1, ptr %8, align 4, !tbaa !8
  store i32 %2, ptr %9, align 4, !tbaa !8
  store i32 %3, ptr %10, align 4, !tbaa !8
  store ptr %4, ptr %11, align 8, !tbaa !10
  store ptr %5, ptr %12, align 8, !tbaa !12
  call void @llvm.lifetime.start.p0(i64 4, ptr %13) #7
  %14 = load ptr, ptr %7, align 8, !tbaa !3
  %15 = load i32, ptr %8, align 4, !tbaa !8
  %16 = load i32, ptr %9, align 4, !tbaa !8
  %17 = load i32, ptr %10, align 4, !tbaa !8
  call void @swap_ij(ptr noundef %14, i32 noundef %15, i32 noundef %16, i32 noundef %17)
  %18 = load ptr, ptr %11, align 8, !tbaa !10
  %19 = load i32, ptr %9, align 4, !tbaa !8
  %20 = sext i32 %19 to i64
  %21 = getelementptr inbounds i8, ptr %18, i64 %20
  %22 = load i8, ptr %21, align 1, !tbaa !14
  %23 = sext i8 %22 to i32
  store i32 %23, ptr %13, align 4, !tbaa !8
  %24 = load ptr, ptr %11, align 8, !tbaa !10
  %25 = load i32, ptr %10, align 4, !tbaa !8
  %26 = sext i32 %25 to i64
  %27 = getelementptr inbounds i8, ptr %24, i64 %26
  %28 = load i8, ptr %27, align 1, !tbaa !14
  %29 = load ptr, ptr %11, align 8, !tbaa !10
  %30 = load i32, ptr %9, align 4, !tbaa !8
  %31 = sext i32 %30 to i64
  %32 = getelementptr inbounds i8, ptr %29, i64 %31
  store i8 %28, ptr %32, align 1, !tbaa !14
  %33 = load i32, ptr %13, align 4, !tbaa !8
  %34 = trunc i32 %33 to i8
  %35 = load ptr, ptr %11, align 8, !tbaa !10
  %36 = load i32, ptr %10, align 4, !tbaa !8
  %37 = sext i32 %36 to i64
  %38 = getelementptr inbounds i8, ptr %35, i64 %37
  store i8 %34, ptr %38, align 1, !tbaa !14
  %39 = load ptr, ptr %12, align 8, !tbaa !12
  %40 = load i32, ptr %39, align 4, !tbaa !8
  %41 = load i32, ptr %9, align 4, !tbaa !8
  %42 = shl i32 1, %41
  %43 = and i32 %40, %42
  %44 = icmp ugt i32 %43, 0
  %45 = zext i1 %44 to i32
  %46 = load ptr, ptr %12, align 8, !tbaa !12
  %47 = load i32, ptr %46, align 4, !tbaa !8
  %48 = load i32, ptr %10, align 4, !tbaa !8
  %49 = shl i32 1, %48
  %50 = and i32 %47, %49
  %51 = icmp ugt i32 %50, 0
  %52 = zext i1 %51 to i32
  %53 = icmp ne i32 %45, %52
  br i1 %53, label %54, label %65

54:                                               ; preds = %6
  %55 = load i32, ptr %9, align 4, !tbaa !8
  %56 = shl i32 1, %55
  %57 = load ptr, ptr %12, align 8, !tbaa !12
  %58 = load i32, ptr %57, align 4, !tbaa !8
  %59 = xor i32 %58, %56
  store i32 %59, ptr %57, align 4, !tbaa !8
  %60 = load i32, ptr %10, align 4, !tbaa !8
  %61 = shl i32 1, %60
  %62 = load ptr, ptr %12, align 8, !tbaa !12
  %63 = load i32, ptr %62, align 4, !tbaa !8
  %64 = xor i32 %63, %61
  store i32 %64, ptr %62, align 4, !tbaa !8
  br label %65

65:                                               ; preds = %54, %6
  %66 = load ptr, ptr %12, align 8, !tbaa !12
  %67 = load i32, ptr %66, align 4, !tbaa !8
  %68 = load i32, ptr %9, align 4, !tbaa !8
  %69 = lshr i32 %67, %68
  %70 = and i32 %69, 1
  %71 = icmp ne i32 %70, 0
  br i1 %71, label %72, label %76

72:                                               ; preds = %65
  %73 = load ptr, ptr %7, align 8, !tbaa !3
  %74 = load i32, ptr %8, align 4, !tbaa !8
  %75 = load i32, ptr %9, align 4, !tbaa !8
  call void @Kit_TruthChangePhase_64bit(ptr noundef %73, i32 noundef %74, i32 noundef %75)
  br label %76

76:                                               ; preds = %72, %65
  call void @llvm.lifetime.end.p0(i64 4, ptr %13) #7
  ret void
}