; Function Attrs: nounwind uwtable
define void @swapAndFlip(ptr noundef %0, i32 noundef %1, i32 noundef %2, i32 noundef %3, ptr noundef captures(none) %4, ptr noundef captures(none) %5) local_unnamed_addr #0 {
  tail call void @swap_ij(ptr noundef %0, i32 noundef %1, i32 noundef %2, i32 noundef %3) #9
  %7 = sext i32 %2 to i64
  %8 = getelementptr inbounds i8, ptr %4, i64 %7
  %9 = load i8, ptr %8, align 1, !tbaa !3
  %10 = sext i32 %3 to i64
  %11 = getelementptr inbounds i8, ptr %4, i64 %10
  %12 = load i8, ptr %11, align 1, !tbaa !3
  store i8 %12, ptr %8, align 1, !tbaa !3
  store i8 %9, ptr %11, align 1, !tbaa !3
  %13 = load i32, ptr %5, align 4, !tbaa !6
  %14 = lshr i32 %13, %2
  %15 = lshr i32 %13, %3
  %16 = xor i32 %14, %15
  %17 = and i32 %16, 1
  %.not = icmp eq i32 %17, 0
  br i1 %.not, label %._crit_edge, label %18

._crit_edge:                                      ; preds = %6
  %.pre = shl nuw i32 1, %2
  br label %23

18:                                               ; preds = %6
  %19 = shl nuw i32 1, %3
  %20 = shl nuw i32 1, %2
  %21 = xor i32 %19, %20
  %22 = xor i32 %21, %13
  store i32 %22, ptr %5, align 4, !tbaa !6
  br label %23

23:                                               ; preds = %._crit_edge, %18
  %.pre-phi = phi i32 [ %.pre, %._crit_edge ], [ %20, %18 ]
  %24 = phi i32 [ %13, %._crit_edge ], [ %22, %18 ]
  %25 = and i32 %24, %.pre-phi
  %.not25 = icmp eq i32 %25, 0
  br i1 %.not25, label %27, label %26

26:                                               ; preds = %23
  tail call void @Kit_TruthChangePhase_64bit(ptr noundef %0, i32 noundef %1, i32 noundef %2) #9
  br label %27

27:                                               ; preds = %26, %23
  ret void
}